; ModuleID = '29/595.c'
source_filename = "29/595.c"
target datalayout = "e-m:e-p270:32:32-p271:32:32-p272:64:64-i64:64-f80:128-n8:16:32:64-S128"
target triple = "x86_64-pc-linux-gnu"

@.str = private unnamed_addr constant [3 x i8] c"%d\00", align 1
@.str.1 = private unnamed_addr constant [7 x i8] c"%.3lf\0A\00", align 1

; Function Attrs: noinline nounwind uwtable
define dso_local i32 @main() #0 {
  %1 = alloca i32, align 4
  %2 = alloca i32, align 4
  %3 = alloca [100 x i32], align 16
  %4 = alloca i32, align 4
  %5 = alloca i32, align 4
  %6 = alloca [100 x i32], align 16
  %7 = alloca [100 x i32], align 16
  %8 = alloca [100 x double], align 16
  %9 = alloca [100 x double], align 16
  store i32 0, i32* %1, align 4
  %10 = bitcast [100 x double]* %9 to i8*
  call void @llvm.memset.p0i8.i64(i8* align 16 %10, i8 0, i64 800, i1 false)
  %11 = call i32 (i8*, ...) @__isoc99_scanf(i8* getelementptr inbounds ([3 x i8], [3 x i8]* @.str, i64 0, i64 0), i32* %2)
  store i32 0, i32* %4, align 4
  br label %12

12:                                               ; preds = %21, %0
  %13 = load i32, i32* %4, align 4
  %14 = load i32, i32* %2, align 4
  %15 = icmp slt i32 %13, %14
  br i1 %15, label %16, label %24

16:                                               ; preds = %12
  %17 = load i32, i32* %4, align 4
  %18 = sext i32 %17 to i64
  %19 = getelementptr inbounds [100 x i32], [100 x i32]* %3, i64 0, i64 %18
  %20 = call i32 (i8*, ...) @__isoc99_scanf(i8* getelementptr inbounds ([3 x i8], [3 x i8]* @.str, i64 0, i64 0), i32* %19)
  br label %21

21:                                               ; preds = %16
  %22 = load i32, i32* %4, align 4
  %23 = add nsw i32 %22, 1
  store i32 %23, i32* %4, align 4
  br label %12

24:                                               ; preds = %12
  store i32 0, i32* %4, align 4
  br label %25

25:                                               ; preds = %131, %24
  %26 = load i32, i32* %4, align 4
  %27 = load i32, i32* %2, align 4
  %28 = icmp slt i32 %26, %27
  br i1 %28, label %29, label %134

29:                                               ; preds = %25
  store i32 0, i32* %5, align 4
  br label %30

30:                                               ; preds = %127, %29
  %31 = load i32, i32* %5, align 4
  %32 = load i32, i32* %4, align 4
  %33 = sext i32 %32 to i64
  %34 = getelementptr inbounds [100 x i32], [100 x i32]* %3, i64 0, i64 %33
  %35 = load i32, i32* %34, align 4
  %36 = icmp slt i32 %31, %35
  br i1 %36, label %37, label %130

37:                                               ; preds = %30
  %38 = load i32, i32* %5, align 4
  %39 = icmp eq i32 %38, 0
  br i1 %39, label %43, label %40

40:                                               ; preds = %37
  %41 = load i32, i32* %5, align 4
  %42 = icmp eq i32 %41, 1
  br i1 %42, label %43, label %49

43:                                               ; preds = %40, %37
  %44 = load i32, i32* %5, align 4
  %45 = add nsw i32 1, %44
  %46 = load i32, i32* %5, align 4
  %47 = sext i32 %46 to i64
  %48 = getelementptr inbounds [100 x i32], [100 x i32]* %7, i64 0, i64 %47
  store i32 %45, i32* %48, align 4
  br label %68

49:                                               ; preds = %40
  %50 = load i32, i32* %5, align 4
  %51 = icmp sgt i32 %50, 1
  br i1 %51, label %52, label %67

52:                                               ; preds = %49
  %53 = load i32, i32* %5, align 4
  %54 = sub nsw i32 %53, 2
  %55 = sext i32 %54 to i64
  %56 = getelementptr inbounds [100 x i32], [100 x i32]* %7, i64 0, i64 %55
  %57 = load i32, i32* %56, align 4
  %58 = load i32, i32* %5, align 4
  %59 = sub nsw i32 %58, 1
  %60 = sext i32 %59 to i64
  %61 = getelementptr inbounds [100 x i32], [100 x i32]* %7, i64 0, i64 %60
  %62 = load i32, i32* %61, align 4
  %63 = add nsw i32 %57, %62
  %64 = load i32, i32* %5, align 4
  %65 = sext i32 %64 to i64
  %66 = getelementptr inbounds [100 x i32], [100 x i32]* %7, i64 0, i64 %65
  store i32 %63, i32* %66, align 4
  br label %67

67:                                               ; preds = %52, %49
  br label %68

68:                                               ; preds = %67, %43
  %69 = load i32, i32* %5, align 4
  %70 = icmp eq i32 %69, 0
  br i1 %70, label %74, label %71

71:                                               ; preds = %68
  %72 = load i32, i32* %5, align 4
  %73 = icmp eq i32 %72, 1
  br i1 %73, label %74, label %80

74:                                               ; preds = %71, %68
  %75 = load i32, i32* %5, align 4
  %76 = add nsw i32 2, %75
  %77 = load i32, i32* %5, align 4
  %78 = sext i32 %77 to i64
  %79 = getelementptr inbounds [100 x i32], [100 x i32]* %6, i64 0, i64 %78
  store i32 %76, i32* %79, align 4
  br label %99

80:                                               ; preds = %71
  %81 = load i32, i32* %5, align 4
  %82 = icmp sgt i32 %81, 1
  br i1 %82, label %83, label %98

83:                                               ; preds = %80
  %84 = load i32, i32* %5, align 4
  %85 = sub nsw i32 %84, 2
  %86 = sext i32 %85 to i64
  %87 = getelementptr inbounds [100 x i32], [100 x i32]* %6, i64 0, i64 %86
  %88 = load i32, i32* %87, align 4
  %89 = load i32, i32* %5, align 4
  %90 = sub nsw i32 %89, 1
  %91 = sext i32 %90 to i64
  %92 = getelementptr inbounds [100 x i32], [100 x i32]* %6, i64 0, i64 %91
  %93 = load i32, i32* %92, align 4
  %94 = add nsw i32 %88, %93
  %95 = load i32, i32* %5, align 4
  %96 = sext i32 %95 to i64
  %97 = getelementptr inbounds [100 x i32], [100 x i32]* %6, i64 0, i64 %96
  store i32 %94, i32* %97, align 4
  br label %98

98:                                               ; preds = %83, %80
  br label %99

99:                                               ; preds = %98, %74
  %100 = load i32, i32* %5, align 4
  %101 = sext i32 %100 to i64
  %102 = getelementptr inbounds [100 x i32], [100 x i32]* %6, i64 0, i64 %101
  %103 = load i32, i32* %102, align 4
  %104 = sitofp i32 %103 to double
  %105 = fmul double 1.000000e+00, %104
  %106 = load i32, i32* %5, align 4
  %107 = sext i32 %106 to i64
  %108 = getelementptr inbounds [100 x i32], [100 x i32]* %7, i64 0, i64 %107
  %109 = load i32, i32* %108, align 4
  %110 = sitofp i32 %109 to double
  %111 = fdiv double %105, %110
  %112 = load i32, i32* %5, align 4
  %113 = sext i32 %112 to i64
  %114 = getelementptr inbounds [100 x double], [100 x double]* %8, i64 0, i64 %113
  store double %111, double* %114, align 8
  %115 = load i32, i32* %4, align 4
  %116 = sext i32 %115 to i64
  %117 = getelementptr inbounds [100 x double], [100 x double]* %9, i64 0, i64 %116
  %118 = load double, double* %117, align 8
  %119 = load i32, i32* %5, align 4
  %120 = sext i32 %119 to i64
  %121 = getelementptr inbounds [100 x double], [100 x double]* %8, i64 0, i64 %120
  %122 = load double, double* %121, align 8
  %123 = fadd double %118, %122
  %124 = load i32, i32* %4, align 4
  %125 = sext i32 %124 to i64
  %126 = getelementptr inbounds [100 x double], [100 x double]* %9, i64 0, i64 %125
  store double %123, double* %126, align 8
  br label %127

127:                                              ; preds = %99
  %128 = load i32, i32* %5, align 4
  %129 = add nsw i32 %128, 1
  store i32 %129, i32* %5, align 4
  br label %30

130:                                              ; preds = %30
  br label %131

131:                                              ; preds = %130
  %132 = load i32, i32* %4, align 4
  %133 = add nsw i32 %132, 1
  store i32 %133, i32* %4, align 4
  br label %25

134:                                              ; preds = %25
  store i32 0, i32* %4, align 4
  br label %135

135:                                              ; preds = %145, %134
  %136 = load i32, i32* %4, align 4
  %137 = load i32, i32* %2, align 4
  %138 = icmp slt i32 %136, %137
  br i1 %138, label %139, label %148

139:                                              ; preds = %135
  %140 = load i32, i32* %4, align 4
  %141 = sext i32 %140 to i64
  %142 = getelementptr inbounds [100 x double], [100 x double]* %9, i64 0, i64 %141
  %143 = load double, double* %142, align 8
  %144 = call i32 (i8*, ...) @printf(i8* getelementptr inbounds ([7 x i8], [7 x i8]* @.str.1, i64 0, i64 0), double %143)
  br label %145

145:                                              ; preds = %139
  %146 = load i32, i32* %4, align 4
  %147 = add nsw i32 %146, 1
  store i32 %147, i32* %4, align 4
  br label %135

148:                                              ; preds = %135
  ret i32 0
}

; Function Attrs: argmemonly nounwind willreturn
declare void @llvm.memset.p0i8.i64(i8* nocapture writeonly, i8, i64, i1 immarg) #1

declare dso_local i32 @__isoc99_scanf(i8*, ...) #2

declare dso_local i32 @printf(i8*, ...) #2


!llvm.module.flags = !{!0}
!llvm.ident = !{!1}

!0 = !{i32 1, !"wchar_size", i32 4}
!1 = !{!"clang version 10.0.0-4ubuntu1 "}
